; Function Attrs: nounwind uwtable
define range(i32 -1, 2) i32 @H5Tis_variable_str(i64 noundef %0) local_unnamed_addr #0 {
  %2 = load i8, ptr @H5_libinit_g, align 1
  %3 = trunc i8 %2 to i1
  %4 = load i8, ptr @H5_libterm_g, align 1
  %5 = trunc i8 %4 to i1
  %6 = select i1 %3, i1 true, i1 %5
  br i1 %6, label %14, label %7

7:                                                ; preds = %1
  %8 = tail call i32 @H5_init_library() #17
  %9 = icmp slt i32 %8, 0
  br i1 %9, label %10, label %14

10:                                               ; preds = %7
  %11 = load i64, ptr @H5E_FUNC_g, align 8
  %12 = load i64, ptr @H5E_CANTINIT_g, align 8
  %13 = tail call i32 (ptr, ptr, i32, i64, i64, ptr, ...) @H5E_printf_stack(ptr noundef nonnull @.str.2, ptr noundef nonnull @__func__.H5Tis_variable_str, i32 noundef 2387, i64 noundef %11, i64 noundef %12, ptr noundef nonnull @.str.221) #17
  br label %H5T_is_variable_str.exit.thread20

14:                                               ; preds = %7, %1
  %15 = tail call i32 @H5CX_push() #17
  %16 = icmp slt i32 %15, 0
  br i1 %16, label %17, label %21

17:                                               ; preds = %14
  %18 = load i64, ptr @H5E_FUNC_g, align 8
  %19 = load i64, ptr @H5E_CANTSET_g, align 8
  %20 = tail call i32 (ptr, ptr, i32, i64, i64, ptr, ...) @H5E_printf_stack(ptr noundef nonnull @.str.2, ptr noundef nonnull @__func__.H5Tis_variable_str, i32 noundef 2387, i64 noundef %18, i64 noundef %19, ptr noundef nonnull @.str.222) #17
  br label %H5T_is_variable_str.exit.thread20

21:                                               ; preds = %14
  %22 = tail call i32 @H5E_clear_stack() #17
  %23 = tail call ptr @H5I_object_verify(i64 noundef %0, i32 noundef 3) #17
  %24 = icmp eq ptr %23, null
  br i1 %24, label %H5T_is_variable_str.exit, label %25

25:                                               ; preds = %21
  %26 = getelementptr inbounds i8, ptr %23, i64 40
  %27 = load ptr, ptr %26, align 8
  %28 = getelementptr inbounds i8, ptr %27, i64 12
  %29 = load i32, ptr %28, align 4
  %30 = icmp eq i32 %29, 9
  br i1 %30, label %31, label %H5T_is_variable_str.exit.thread26

31:                                               ; preds = %25
  %32 = getelementptr inbounds i8, ptr %27, i64 48
  %33 = load i32, ptr %32, align 8
  %34 = icmp eq i32 %33, 1
  %35 = zext i1 %34 to i32
  br label %H5T_is_variable_str.exit.thread26

H5T_is_variable_str.exit.thread26:                ; preds = %31, %25
  %.09.ph.ph = phi i32 [ 0, %25 ], [ %35, %31 ]
  %36 = tail call i32 @H5CX_pop(i1 noundef zeroext true) #17
  br label %42

H5T_is_variable_str.exit:                         ; preds = %21
  %37 = load i64, ptr @H5E_ARGS_g, align 8
  %38 = load i64, ptr @H5E_BADTYPE_g, align 8
  %39 = tail call i32 (ptr, ptr, i32, i64, i64, ptr, ...) @H5E_printf_stack(ptr noundef nonnull @.str.2, ptr noundef nonnull @__func__.H5Tis_variable_str, i32 noundef 2391, i64 noundef %37, i64 noundef %38, ptr noundef nonnull @.str.12) #17
  %40 = tail call i32 @H5CX_pop(i1 noundef zeroext true) #17
  br label %H5T_is_variable_str.exit.thread20

H5T_is_variable_str.exit.thread20:                ; preds = %17, %10, %H5T_is_variable_str.exit
  %41 = tail call i32 @H5E_dump_api_stack() #17
  br label %42

42:                                               ; preds = %H5T_is_variable_str.exit.thread26, %H5T_is_variable_str.exit.thread20
  %.091523 = phi i32 [ -1, %H5T_is_variable_str.exit.thread20 ], [ %.09.ph.ph, %H5T_is_variable_str.exit.thread26 ]
  ret i32 %.091523
}